target datalayout = "e-m:e-p270:32:32-p271:32:32-p272:64:64-i64:64-i128:128-f80:128-n8:16:32:64-S128"
target triple = "x86_64-pc-linux-gnu"

%struct.GCstr = type { %struct.GCRef, i8, i8, i8, i8, i32, i32, i32 }
%struct.GCRef = type { i64 }
%struct.CTState = type { ptr, i32, i32, ptr, ptr, ptr, %struct.CCallback, [128 x i16] }
%struct.CCallback = type { [8 x %union.FPRCBArg], [8 x i64], ptr, ptr, ptr, i32, i32, i32 }
%union.FPRCBArg = type { double }
%struct.CPState = type { i32, i32, %struct.CPValue, ptr, ptr, ptr, %struct.SBuf, ptr, ptr, ptr, ptr, i32, i32, i32, i32, [7 x i8], i8 }
%struct.CPValue = type { %union.anon, i32 }
%union.anon = type { i32 }
%struct.SBuf = type { ptr, ptr, ptr, %struct.MRef }
%struct.MRef = type { i64 }
%struct.lua_State = type { %struct.GCRef, i8, i8, i8, i8, %struct.MRef, %struct.GCRef, ptr, ptr, %struct.MRef, %struct.MRef, %struct.GCRef, %struct.GCRef, ptr, i32 }
%union.TValue = type { i64 }
%struct.global_State = type { ptr, ptr, %struct.GCState, %struct.GCstr, i8, i8, i8, i8, %struct.StrInternState, i32, %struct.GCRef, %struct.SBuf, %union.TValue, %union.TValue, %struct.Node, %union.TValue, %struct.GCupval, i32, i32, ptr, ptr, ptr, i32, i32, %struct.GCRef, %struct.MRef, %struct.MRef, %struct.PRNGState, [39 x %struct.GCRef] }
%struct.GCState = type { i64, i64, i8, i8, i8, i8, i32, %struct.GCRef, %struct.MRef, %struct.GCRef, %struct.GCRef, %struct.GCRef, %struct.GCRef, i64, i64, i32, i32, %struct.MRef }
%struct.StrInternState = type { ptr, i32, i32, i32, i8, i8, i8, i8, i64 }
%struct.Node = type { %union.TValue, %union.TValue, %struct.MRef }
%struct.GCupval = type { %struct.GCRef, i8, i8, i8, i8, %union.anon.1, %struct.MRef, i32 }
%union.anon.1 = type { %struct.anon.2 }
%struct.anon.2 = type { %struct.GCRef, %struct.GCRef }
%struct.PRNGState = type { [4 x i64] }

; Function Attrs: alwaysinline nounwind uwtable
define internal void @lj_mem_free(ptr noundef %0, ptr noundef %1, i64 noundef %2) #6 {
  %4 = alloca ptr, align 8
  %5 = alloca ptr, align 8
  %6 = alloca i64, align 8
  store ptr %0, ptr %4, align 8, !tbaa !34
  store ptr %1, ptr %5, align 8, !tbaa !40
  store i64 %2, ptr %6, align 8, !tbaa !114
  %7 = load i64, ptr %6, align 8, !tbaa !114
  %8 = load ptr, ptr %4, align 8, !tbaa !34
  %9 = getelementptr inbounds nuw %struct.global_State, ptr %8, i32 0, i32 2
  %10 = getelementptr inbounds nuw %struct.GCState, ptr %9, i32 0, i32 0
  %11 = load i64, ptr %10, align 8, !tbaa !138
  %12 = sub i64 %11, %7
  store i64 %12, ptr %10, align 8, !tbaa !138
  %13 = load ptr, ptr %4, align 8, !tbaa !34
  %14 = getelementptr inbounds nuw %struct.global_State, ptr %13, i32 0, i32 0
  %15 = load ptr, ptr %14, align 8, !tbaa !146
  %16 = load ptr, ptr %4, align 8, !tbaa !34
  %17 = getelementptr inbounds nuw %struct.global_State, ptr %16, i32 0, i32 1
  %18 = load ptr, ptr %17, align 8, !tbaa !147
  %19 = load ptr, ptr %5, align 8, !tbaa !40
  %20 = load i64, ptr %6, align 8, !tbaa !114
  %21 = call ptr %15(ptr noundef %18, ptr noundef %19, i64 noundef %20, i64 noundef 0)
  ret void
}

; Function Attrs: alwaysinline nounwind uwtable
define internal void @lj_buf_free(ptr noundef %0, ptr noundef %1) #6 {
  %3 = alloca ptr, align 8
  %4 = alloca ptr, align 8
  store ptr %0, ptr %3, align 8, !tbaa !34
  store ptr %1, ptr %4, align 8, !tbaa !69
  %5 = load ptr, ptr %3, align 8, !tbaa !34
  %6 = load ptr, ptr %4, align 8, !tbaa !69
  %7 = getelementptr inbounds nuw %struct.SBuf, ptr %6, i32 0, i32 2
  %8 = load ptr, ptr %7, align 8, !tbaa !72
  %9 = load ptr, ptr %4, align 8, !tbaa !69
  %10 = getelementptr inbounds nuw %struct.SBuf, ptr %9, i32 0, i32 1
  %11 = load ptr, ptr %10, align 8, !tbaa !73
  %12 = load ptr, ptr %4, align 8, !tbaa !69
  %13 = getelementptr inbounds nuw %struct.SBuf, ptr %12, i32 0, i32 2
  %14 = load ptr, ptr %13, align 8, !tbaa !72
  %15 = ptrtoint ptr %11 to i64
  %16 = ptrtoint ptr %14 to i64
  %17 = sub i64 %15, %16
  %18 = trunc i64 %17 to i32
  %19 = zext i32 %18 to i64
  call void @lj_mem_free(ptr noundef %5, ptr noundef %8, i64 noundef %19)
  ret void
}

; Function Attrs: nounwind uwtable
define internal void @cp_cleanup(ptr noundef %0) #0 {
  %2 = alloca ptr, align 8
  %3 = alloca ptr, align 8
  store ptr %0, ptr %2, align 8, !tbaa !20
  call void @llvm.lifetime.start.p0(i64 8, ptr %3) #13
  %4 = load ptr, ptr %2, align 8, !tbaa !20
  %5 = getelementptr inbounds nuw %struct.CPState, ptr %4, i32 0, i32 7
  %6 = load ptr, ptr %5, align 8, !tbaa !43
  %7 = getelementptr inbounds nuw %struct.lua_State, ptr %6, i32 0, i32 5
  %8 = getelementptr inbounds nuw %struct.MRef, ptr %7, i32 0, i32 0
  %9 = load i64, ptr %8, align 8, !tbaa !52
  %10 = inttoptr i64 %9 to ptr
  store ptr %10, ptr %3, align 8, !tbaa !34
  %11 = load ptr, ptr %3, align 8, !tbaa !34
  %12 = load ptr, ptr %2, align 8, !tbaa !20
  %13 = getelementptr inbounds nuw %struct.CPState, ptr %12, i32 0, i32 6
  call void @lj_buf_free(ptr noundef %11, ptr noundef %13)
  call void @llvm.lifetime.end.p0(i64 8, ptr %3) #13
  ret void
}

; Function Attrs: nounwind uwtable
define hidden i32 @lj_cparse(ptr noundef %0) #0 {
  %2 = alloca ptr, align 8
  %3 = alloca %struct.CTState, align 8
  %4 = alloca i32, align 4
  store ptr %0, ptr %2, align 8, !tbaa !20
  call void @llvm.lifetime.start.p0(i64 464, ptr %3) #13
  %5 = load ptr, ptr %2, align 8, !tbaa !20
  %6 = getelementptr inbounds nuw %struct.CPState, ptr %5, i32 0, i32 8
  %7 = load ptr, ptr %6, align 8, !tbaa !22
  call void @llvm.memcpy.p0.p0.i64(ptr align 8 %3, ptr align 8 %7, i64 464, i1 false), !tbaa.struct !31
  call void @llvm.lifetime.start.p0(i64 4, ptr %4) #13
  %8 = load ptr, ptr %2, align 8, !tbaa !20
  %9 = getelementptr inbounds nuw %struct.CPState, ptr %8, i32 0, i32 7
  %10 = load ptr, ptr %9, align 8, !tbaa !43
  %11 = load ptr, ptr %2, align 8, !tbaa !20
  %12 = call i32 @lj_vm_cpcall(ptr noundef %10, ptr noundef null, ptr noundef %11, ptr noundef @cpcparser)
  store i32 %12, ptr %4, align 4, !tbaa !11
  %13 = load i32, ptr %4, align 4, !tbaa !11
  %14 = icmp ne i32 %13, 0
  br i1 %14, label %15, label %29

15:                                               ; preds = %1
  %16 = getelementptr inbounds nuw %struct.CTState, ptr %3, i32 0, i32 1
  %17 = load i32, ptr %16, align 8, !tbaa !44
  %18 = load ptr, ptr %2, align 8, !tbaa !20
  %19 = getelementptr inbounds nuw %struct.CPState, ptr %18, i32 0, i32 8
  %20 = load ptr, ptr %19, align 8, !tbaa !22
  %21 = getelementptr inbounds nuw %struct.CTState, ptr %20, i32 0, i32 1
  store i32 %17, ptr %21, align 8, !tbaa !44
  %22 = load ptr, ptr %2, align 8, !tbaa !20
  %23 = getelementptr inbounds nuw %struct.CPState, ptr %22, i32 0, i32 8
  %24 = load ptr, ptr %23, align 8, !tbaa !22
  %25 = getelementptr inbounds nuw %struct.CTState, ptr %24, i32 0, i32 7
  %26 = getelementptr inbounds [128 x i16], ptr %25, i64 0, i64 0
  %27 = getelementptr inbounds nuw %struct.CTState, ptr %3, i32 0, i32 7
  %28 = getelementptr inbounds [128 x i16], ptr %27, i64 0, i64 0
  call void @llvm.memcpy.p0.p0.i64(ptr align 8 %26, ptr align 8 %28, i64 256, i1 false)
  br label %29

29:                                               ; preds = %15, %1
  %30 = load ptr, ptr %2, align 8, !tbaa !20
  call void @cp_cleanup(ptr noundef %30)
  %31 = load i32, ptr %4, align 4, !tbaa !11
  call void @llvm.lifetime.end.p0(i64 4, ptr %4) #13
  call void @llvm.lifetime.end.p0(i64 464, ptr %3) #13
  ret i32 %31
}