; Function Attrs: nounwind uwtable
define hidden i32 @lj_cparse(ptr noundef %0) local_unnamed_addr #2 {
  %.sroa.4 = alloca [452 x i8], align 4
  call void @llvm.lifetime.start.p0(i64 452, ptr nonnull %.sroa.4)
  %2 = getelementptr inbounds nuw i8, ptr %0, i64 80
  %3 = load ptr, ptr %2, align 8, !tbaa !14
  %.sroa.3.0..sroa_idx = getelementptr inbounds nuw i8, ptr %3, i64 8
  %.sroa.3.0.copyload = load i32, ptr %.sroa.3.0..sroa_idx, align 8, !tbaa !26
  %.sroa.4.0..sroa_idx = getelementptr inbounds nuw i8, ptr %3, i64 12
  call void @llvm.memcpy.p0.p0.i64(ptr noundef nonnull align 4 dereferenceable(452) %.sroa.4, ptr noundef nonnull align 4 dereferenceable(452) %.sroa.4.0..sroa_idx, i64 452, i1 false), !tbaa.struct !27
  %4 = getelementptr inbounds nuw i8, ptr %0, i64 72
  %5 = load ptr, ptr %4, align 8, !tbaa !38
  %6 = tail call i32 @lj_vm_cpcall(ptr noundef %5, ptr noundef null, ptr noundef %0, ptr noundef nonnull @cpcparser) #15
  %.not = icmp eq i32 %6, 0
  br i1 %.not, label %11, label %7

7:                                                ; preds = %1
  %8 = load ptr, ptr %2, align 8, !tbaa !14
  %9 = getelementptr inbounds nuw i8, ptr %8, i64 8
  store i32 %.sroa.3.0.copyload, ptr %9, align 8, !tbaa !39
  %10 = getelementptr inbounds nuw i8, ptr %8, i64 208
  %.sroa.4.208..sroa_idx = getelementptr inbounds nuw i8, ptr %.sroa.4, i64 196
  call void @llvm.memcpy.p0.p0.i64(ptr noundef nonnull align 8 dereferenceable(256) %10, ptr noundef nonnull align 4 dereferenceable(256) %.sroa.4.208..sroa_idx, i64 256, i1 false)
  br label %11

11:                                               ; preds = %7, %1
  %12 = load ptr, ptr %4, align 8, !tbaa !38
  %13 = getelementptr inbounds nuw i8, ptr %12, i64 16
  %14 = load i64, ptr %13, align 8, !tbaa !42
  %15 = inttoptr i64 %14 to ptr
  %16 = getelementptr inbounds nuw i8, ptr %0, i64 56
  %17 = load ptr, ptr %16, align 8, !tbaa !44
  %18 = getelementptr inbounds nuw i8, ptr %0, i64 48
  %19 = load ptr, ptr %18, align 8, !tbaa !45
  %20 = ptrtoint ptr %19 to i64
  %21 = ptrtoint ptr %17 to i64
  %22 = sub i64 %20, %21
  %23 = and i64 %22, 4294967295
  %24 = getelementptr inbounds nuw i8, ptr %15, i64 16
  %25 = load i64, ptr %24, align 8, !tbaa !46
  %26 = sub i64 %25, %23
  store i64 %26, ptr %24, align 8, !tbaa !46
  %27 = load ptr, ptr %15, align 8, !tbaa !54
  %28 = getelementptr inbounds nuw i8, ptr %15, i64 8
  %29 = load ptr, ptr %28, align 8, !tbaa !55
  %30 = tail call ptr %27(ptr noundef %29, ptr noundef %17, i64 noundef range(i64 0, 4294967296) %23, i64 noundef 0) #15
  call void @llvm.lifetime.end.p0(i64 452, ptr nonnull %.sroa.4)
  ret i32 %6
}